target datalayout = "e-m:e-p270:32:32-p271:32:32-p272:64:64-i64:64-i128:128-f80:128-n8:16:32:64-S128"
target triple = "x86_64-pc-linux-gnu"

%struct.ggml_tensor = type { i32, ptr, [4 x i64], [4 x i64], i32, [16 x i32], i32, [10 x ptr], ptr, i64, ptr, [64 x i8], ptr, [8 x i8] }
%struct.ggml_backend = type { ptr, %struct.ggml_backend_i, ptr, ptr }
%struct.ggml_backend_i = type { ptr, ptr, ptr, ptr, ptr, ptr, ptr, ptr, ptr, ptr, ptr, ptr, ptr }

@.str = private unnamed_addr constant [123 x i8] c"generated/home/dtcxzyw/WorkSpace/Projects/compilers/llvm-opt-benchmark/bench/llama.cpp/llama.cpp/ggml/src/ggml-backend.cpp\00", align 1
@.str.1 = private unnamed_addr constant [23 x i8] c"GGML_ASSERT(%s) failed\00", align 1
@.str.13 = private unnamed_addr constant [79 x i8] c"ggml_are_same_layout(src, dst) && \22cannot copy tensors with different layouts\22\00", align 1

; Function Attrs: mustprogress uwtable
define void @ggml_backend_synchronize(ptr noundef %0) #0 {
  %2 = alloca ptr, align 8
  store ptr %0, ptr %2, align 8, !tbaa !56
  %3 = load ptr, ptr %2, align 8, !tbaa !56
  %4 = getelementptr inbounds nuw %struct.ggml_backend, ptr %3, i32 0, i32 1
  %5 = getelementptr inbounds nuw %struct.ggml_backend_i, ptr %4, i32 0, i32 5
  %6 = load ptr, ptr %5, align 8, !tbaa !76
  %7 = icmp eq ptr %6, null
  br i1 %7, label %8, label %9

8:                                                ; preds = %1
  br label %15

9:                                                ; preds = %1
  %10 = load ptr, ptr %2, align 8, !tbaa !56
  %11 = getelementptr inbounds nuw %struct.ggml_backend, ptr %10, i32 0, i32 1
  %12 = getelementptr inbounds nuw %struct.ggml_backend_i, ptr %11, i32 0, i32 5
  %13 = load ptr, ptr %12, align 8, !tbaa !76
  %14 = load ptr, ptr %2, align 8, !tbaa !56
  call void %13(ptr noundef %14)
  br label %15

15:                                               ; preds = %9, %8
  ret void
}

; Function Attrs: mustprogress nounwind uwtable
define internal noundef zeroext i1 @_ZL20ggml_are_same_layoutPK11ggml_tensorS1_(ptr noundef %0, ptr noundef %1) #4 {
  %3 = alloca i1, align 1
  %4 = alloca ptr, align 8
  %5 = alloca ptr, align 8
  %6 = alloca i32, align 4
  %7 = alloca i32, align 4
  store ptr %0, ptr %4, align 8, !tbaa !28
  store ptr %1, ptr %5, align 8, !tbaa !28
  %8 = load ptr, ptr %4, align 8, !tbaa !28
  %9 = getelementptr inbounds nuw %struct.ggml_tensor, ptr %8, i32 0, i32 0
  %10 = load i32, ptr %9, align 8, !tbaa !88
  %11 = load ptr, ptr %5, align 8, !tbaa !28
  %12 = getelementptr inbounds nuw %struct.ggml_tensor, ptr %11, i32 0, i32 0
  %13 = load i32, ptr %12, align 8, !tbaa !88
  %14 = icmp ne i32 %10, %13
  br i1 %14, label %15, label %16

15:                                               ; preds = %2
  store i1 false, ptr %3, align 1
  br label %58

16:                                               ; preds = %2
  call void @llvm.lifetime.start.p0(i64 4, ptr %6) #15
  store i32 0, ptr %6, align 4, !tbaa !89
  br label %17

17:                                               ; preds = %52, %16
  %18 = load i32, ptr %6, align 4, !tbaa !89
  %19 = icmp slt i32 %18, 4
  br i1 %19, label %21, label %20

20:                                               ; preds = %17
  store i32 2, ptr %7, align 4
  br label %55

21:                                               ; preds = %17
  %22 = load ptr, ptr %4, align 8, !tbaa !28
  %23 = getelementptr inbounds nuw %struct.ggml_tensor, ptr %22, i32 0, i32 2
  %24 = load i32, ptr %6, align 4, !tbaa !89
  %25 = sext i32 %24 to i64
  %26 = getelementptr inbounds [4 x i64], ptr %23, i64 0, i64 %25
  %27 = load i64, ptr %26, align 8, !tbaa !12
  %28 = load ptr, ptr %5, align 8, !tbaa !28
  %29 = getelementptr inbounds nuw %struct.ggml_tensor, ptr %28, i32 0, i32 2
  %30 = load i32, ptr %6, align 4, !tbaa !89
  %31 = sext i32 %30 to i64
  %32 = getelementptr inbounds [4 x i64], ptr %29, i64 0, i64 %31
  %33 = load i64, ptr %32, align 8, !tbaa !12
  %34 = icmp ne i64 %27, %33
  br i1 %34, label %35, label %36

35:                                               ; preds = %21
  store i1 false, ptr %3, align 1
  store i32 1, ptr %7, align 4
  br label %55

36:                                               ; preds = %21
  %37 = load ptr, ptr %4, align 8, !tbaa !28
  %38 = getelementptr inbounds nuw %struct.ggml_tensor, ptr %37, i32 0, i32 3
  %39 = load i32, ptr %6, align 4, !tbaa !89
  %40 = sext i32 %39 to i64
  %41 = getelementptr inbounds [4 x i64], ptr %38, i64 0, i64 %40
  %42 = load i64, ptr %41, align 8, !tbaa !12
  %43 = load ptr, ptr %5, align 8, !tbaa !28
  %44 = getelementptr inbounds nuw %struct.ggml_tensor, ptr %43, i32 0, i32 3
  %45 = load i32, ptr %6, align 4, !tbaa !89
  %46 = sext i32 %45 to i64
  %47 = getelementptr inbounds [4 x i64], ptr %44, i64 0, i64 %46
  %48 = load i64, ptr %47, align 8, !tbaa !12
  %49 = icmp ne i64 %42, %48
  br i1 %49, label %50, label %51

50:                                               ; preds = %36
  store i1 false, ptr %3, align 1
  store i32 1, ptr %7, align 4
  br label %55

51:                                               ; preds = %36
  br label %52

52:                                               ; preds = %51
  %53 = load i32, ptr %6, align 4, !tbaa !89
  %54 = add nsw i32 %53, 1
  store i32 %54, ptr %6, align 4, !tbaa !89
  br label %17, !llvm.loop !90

55:                                               ; preds = %50, %35, %20
  call void @llvm.lifetime.end.p0(i64 4, ptr %6) #15
  %56 = load i32, ptr %7, align 4
  switch i32 %56, label %60 [
    i32 2, label %57
    i32 1, label %58
  ]

57:                                               ; preds = %55
  store i1 true, ptr %3, align 1
  br label %58

58:                                               ; preds = %57, %55, %15
  %59 = load i1, ptr %3, align 1
  ret i1 %59

60:                                               ; preds = %55
  unreachable
}

; Function Attrs: mustprogress uwtable
define void @ggml_backend_tensor_copy_async(ptr noundef %0, ptr noundef %1, ptr noundef %2, ptr noundef %3) #0 {
  %5 = alloca ptr, align 8
  %6 = alloca ptr, align 8
  %7 = alloca ptr, align 8
  %8 = alloca ptr, align 8
  store ptr %0, ptr %5, align 8, !tbaa !56
  store ptr %1, ptr %6, align 8, !tbaa !56
  store ptr %2, ptr %7, align 8, !tbaa !28
  store ptr %3, ptr %8, align 8, !tbaa !28
  %9 = load ptr, ptr %7, align 8, !tbaa !28
  %10 = load ptr, ptr %8, align 8, !tbaa !28
  %11 = call noundef zeroext i1 @_ZL20ggml_are_same_layoutPK11ggml_tensorS1_(ptr noundef %9, ptr noundef %10)
  br i1 %11, label %13, label %12

12:                                               ; preds = %4
  call void (ptr, i32, ptr, ...) @ggml_abort(ptr noundef @.str, i32 noundef 392, ptr noundef @.str.1, ptr noundef @.str.13) #18
  unreachable

13:                                               ; preds = %4
  %14 = load ptr, ptr %7, align 8, !tbaa !28
  %15 = load ptr, ptr %8, align 8, !tbaa !28
  %16 = icmp eq ptr %14, %15
  br i1 %16, label %17, label %18

17:                                               ; preds = %13
  br label %41

18:                                               ; preds = %13
  %19 = load ptr, ptr %6, align 8, !tbaa !56
  %20 = getelementptr inbounds nuw %struct.ggml_backend, ptr %19, i32 0, i32 1
  %21 = getelementptr inbounds nuw %struct.ggml_backend_i, ptr %20, i32 0, i32 4
  %22 = load ptr, ptr %21, align 8, !tbaa !91
  %23 = icmp ne ptr %22, null
  br i1 %23, label %24, label %36

24:                                               ; preds = %18
  %25 = load ptr, ptr %6, align 8, !tbaa !56
  %26 = getelementptr inbounds nuw %struct.ggml_backend, ptr %25, i32 0, i32 1
  %27 = getelementptr inbounds nuw %struct.ggml_backend_i, ptr %26, i32 0, i32 4
  %28 = load ptr, ptr %27, align 8, !tbaa !91
  %29 = load ptr, ptr %5, align 8, !tbaa !56
  %30 = load ptr, ptr %6, align 8, !tbaa !56
  %31 = load ptr, ptr %7, align 8, !tbaa !28
  %32 = load ptr, ptr %8, align 8, !tbaa !28
  %33 = call noundef zeroext i1 %28(ptr noundef %29, ptr noundef %30, ptr noundef %31, ptr noundef %32)
  br i1 %33, label %34, label %35

34:                                               ; preds = %24
  br label %41

35:                                               ; preds = %24
  br label %36

36:                                               ; preds = %35, %18
  %37 = load ptr, ptr %5, align 8, !tbaa !56
  call void @ggml_backend_synchronize(ptr noundef %37)
  %38 = load ptr, ptr %6, align 8, !tbaa !56
  call void @ggml_backend_synchronize(ptr noundef %38)
  %39 = load ptr, ptr %7, align 8, !tbaa !28
  %40 = load ptr, ptr %8, align 8, !tbaa !28
  call void @ggml_backend_tensor_copy(ptr noundef %39, ptr noundef %40)
  br label %41

41:                                               ; preds = %36, %34, %17
  ret void
}