; Function Attrs: mustprogress uwtable
define void @ggml_backend_tensor_copy_async(ptr noundef %0, ptr noundef %1, ptr noundef %2, ptr noundef %3) local_unnamed_addr #0 {
  %5 = load i32, ptr %2, align 8, !tbaa !74
  %6 = load i32, ptr %3, align 8, !tbaa !74
  %.not.i = icmp eq i32 %5, %6
  br i1 %.not.i, label %.preheader.i, label %.loopexit

.preheader.i:                                     ; preds = %4
  %7 = getelementptr inbounds nuw i8, ptr %2, i64 16
  %8 = getelementptr inbounds nuw i8, ptr %2, i64 48
  %9 = getelementptr inbounds nuw i8, ptr %3, i64 16
  %10 = getelementptr inbounds nuw i8, ptr %3, i64 48
  br label %12

11:                                               ; preds = %17
  %indvars.iv.next.i = add nuw nsw i64 %indvars.iv.i, 1
  %exitcond.i = icmp eq i64 %indvars.iv.next.i, 4
  br i1 %exitcond.i, label %_ZL20ggml_are_same_layoutPK11ggml_tensorS1_.exit, label %12, !llvm.loop !75

12:                                               ; preds = %11, %.preheader.i
  %indvars.iv.i = phi i64 [ 0, %.preheader.i ], [ %indvars.iv.next.i, %11 ]
  %13 = getelementptr inbounds nuw [4 x i64], ptr %7, i64 0, i64 %indvars.iv.i
  %14 = load i64, ptr %13, align 8, !tbaa !76
  %15 = getelementptr inbounds nuw [4 x i64], ptr %9, i64 0, i64 %indvars.iv.i
  %16 = load i64, ptr %15, align 8, !tbaa !76
  %.not15.i = icmp eq i64 %14, %16
  br i1 %.not15.i, label %17, label %.loopexit

17:                                               ; preds = %12
  %18 = getelementptr inbounds nuw [4 x i64], ptr %8, i64 0, i64 %indvars.iv.i
  %19 = load i64, ptr %18, align 8, !tbaa !76
  %20 = getelementptr inbounds nuw [4 x i64], ptr %10, i64 0, i64 %indvars.iv.i
  %21 = load i64, ptr %20, align 8, !tbaa !76
  %.not16.i = icmp eq i64 %19, %21
  br i1 %.not16.i, label %11, label %.loopexit

.loopexit:                                        ; preds = %12, %17, %4
  tail call void (ptr, i32, ptr, ...) @ggml_abort(ptr noundef nonnull @.str, i32 noundef 392, ptr noundef nonnull @.str.1, ptr noundef nonnull @.str.13) #24
  unreachable

_ZL20ggml_are_same_layoutPK11ggml_tensorS1_.exit: ; preds = %11
  %22 = icmp eq ptr %2, %3
  br i1 %22, label %37, label %23

23:                                               ; preds = %_ZL20ggml_are_same_layoutPK11ggml_tensorS1_.exit
  %24 = getelementptr inbounds nuw i8, ptr %1, i64 40
  %25 = load ptr, ptr %24, align 8, !tbaa !77
  %.not = icmp eq ptr %25, null
  br i1 %.not, label %28, label %26

26:                                               ; preds = %23
  %27 = tail call noundef zeroext i1 %25(ptr noundef %0, ptr noundef nonnull %1, ptr noundef nonnull %2, ptr noundef nonnull %3)
  br i1 %27, label %37, label %28

28:                                               ; preds = %26, %23
  %29 = getelementptr inbounds nuw i8, ptr %0, i64 48
  %30 = load ptr, ptr %29, align 8, !tbaa !66
  %31 = icmp eq ptr %30, null
  br i1 %31, label %ggml_backend_synchronize.exit, label %32

32:                                               ; preds = %28
  tail call void %30(ptr noundef nonnull %0)
  br label %ggml_backend_synchronize.exit

ggml_backend_synchronize.exit:                    ; preds = %28, %32
  %33 = getelementptr inbounds nuw i8, ptr %1, i64 48
  %34 = load ptr, ptr %33, align 8, !tbaa !66
  %35 = icmp eq ptr %34, null
  br i1 %35, label %ggml_backend_synchronize.exit16, label %36

36:                                               ; preds = %ggml_backend_synchronize.exit
  tail call void %34(ptr noundef nonnull %1)
  br label %ggml_backend_synchronize.exit16

ggml_backend_synchronize.exit16:                  ; preds = %ggml_backend_synchronize.exit, %36
  tail call void @ggml_backend_tensor_copy(ptr noundef nonnull %2, ptr noundef nonnull %3)
  br label %37

37:                                               ; preds = %26, %_ZL20ggml_are_same_layoutPK11ggml_tensorS1_.exit, %ggml_backend_synchronize.exit16
  ret void
}